(lp0
(dp1
cnumpy.core.multiarray
scalar
p2
(cnumpy
dtype
p3
(S'i4'
p4
I0
I1
tp5
Rp6
(I3
S'<'
p7
NNNI-1
I-1
I0
tp8
bS'\x00\x00\x00\x00'
p9
tp10
Rp11
(S'0'
p12
I1
tp13
sI1
(S'1110'
p14
I4
tp15
sg2
(g6
S'\x02\x00\x00\x00'
p16
tp17
Rp18
(S'110'
p19
I3
tp20
sI3
(S'111101'
p21
I6
tp22
sg2
(g6
S'\x04\x00\x00\x00'
p23
tp24
Rp25
(S'101'
p26
I3
tp27
sI5
(S'1000'
p28
I4
tp29
sI6
(S'111100'
p30
I6
tp31
sI7
(S'11111100'
p32
I8
tp33
sI8
(S'10010'
p34
I5
tp35
sI9
(S'111110'
p36
I6
tp37
sI10
(S'1111111'
p38
I7
tp39
sI11
(S'1001101'
p40
I7
tp41
sI12
(S'1001100'
p42
I7
tp43
sI13
(S'111111011'
p44
I9
tp45
sI14
(S'111111010'
p46
I9
tp47
sI16
(S'100111'
p48
I6
tp49
saI16
a.