(lp0
(ccopy_reg
_reconstructor
p1
(chuffman
HuffmanNode
p2
c__builtin__
object
p3
Ntp4
Rp5
(dp6
S'right'
p7
(g1
(g2
g3
Ntp8
Rp9
(dp10
g7
(g1
(g2
g3
Ntp11
Rp12
(dp13
g7
(g1
(g2
g3
Ntp14
Rp15
(dp16
g7
(g1
(g2
g3
Ntp17
Rp18
(dp19
g7
(g1
(g2
g3
Ntp20
Rp21
(dp22
g7
(g1
(g2
g3
Ntp23
Rp24
(dp25
g7
(I10
I11793
tp26
sS'left'
p27
(g1
(g2
g3
Ntp28
Rp29
(dp30
g7
(g1
(g2
g3
Ntp31
Rp32
(dp33
g7
(I13
I3484
tp34
sg27
(I14
I2033
tp35
sbI5517
tp36
sg27
(I7
I4320
tp37
sbI9837
tp38
sbI21630
tp39
sg27
(I9
I18098
tp40
sbI39728
tp41
sg27
(g1
(g2
g3
Ntp42
Rp43
(dp44
g7
(I3
I16434
tp45
sg27
(I6
I14474
tp46
sbI30908
tp47
sbI70636
tp48
sg27
(I1
I65971
tp49
sbI136607
tp50
sg27
(cnumpy.core.multiarray
scalar
p51
(cnumpy
dtype
p52
(S'i4'
p53
I0
I1
tp54
Rp55
(I3
S'<'
p56
NNNI-1
I-1
I0
tp57
bS'\x02\x00\x00\x00'
p58
tp59
Rp60
I130987
tp61
sbI267594
tp62
sg27
(g1
(g2
g3
Ntp63
Rp64
(dp65
g7
(g51
(g55
S'\x04\x00\x00\x00'
p66
tp67
Rp68
I96550
tp69
sg27
(g1
(g2
g3
Ntp70
Rp71
(dp72
g7
(g1
(g2
g3
Ntp73
Rp74
(dp75
g7
(g1
(g2
g3
Ntp76
Rp77
(dp78
g7
(I16
I12976
tp79
sg27
(g1
(g2
g3
Ntp80
Rp81
(dp82
g7
(I11
I7046
tp83
sg27
(I12
I5709
tp84
sbI12755
tp85
sbI25731
tp86
sg27
(I8
I22949
tp87
sbI48680
tp88
sg27
(I5
I44029
tp89
sbI92709
tp90
sbI189259
tp91
sbI456853
tp92
sg27
(g51
(g55
S'\x00\x00\x00\x00'
p93
tp94
Rp95
I319045
tp96
sbI775898
tp97
a(S'100111'
p98
I6
tp99
a.