(lp0
(ccopy_reg
_reconstructor
p1
(chuffman
HuffmanNode
p2
c__builtin__
object
p3
Ntp4
Rp5
(dp6
S'right'
p7
(g1
(g2
g3
Ntp8
Rp9
(dp10
g7
(cnumpy.core.multiarray
scalar
p11
(cnumpy
dtype
p12
(S'i4'
p13
I0
I1
tp14
Rp15
(I3
S'<'
p16
NNNI-1
I-1
I0
tp17
bS'\x00\x00\x00\x00'
p18
tp19
Rp20
I3952
tp21
sS'left'
p22
(g1
(g2
g3
Ntp23
Rp24
(dp25
g7
(g1
(g2
g3
Ntp26
Rp27
(dp28
g7
(g1
(g2
g3
Ntp29
Rp30
(dp31
g7
(g11
(g15
S'\x08\x00\x00\x00'
p32
tp33
Rp34
I528
tp35
sg22
(g1
(g2
g3
Ntp36
Rp37
(dp38
g7
(I6
I219
tp39
sg22
(I10
I194
tp40
sbI413
tp41
sbI941
tp42
sg22
(I11
I647
tp43
sbI1588
tp44
sg22
(g11
(g15
S'\x02\x00\x00\x00'
p45
tp46
Rp47
I1550
tp48
sbI3138
tp49
sbI7090
tp50
sg22
(g1
(g2
g3
Ntp51
Rp52
(dp53
g7
(g11
(g15
S'\x04\x00\x00\x00'
p54
tp55
Rp56
I2426
tp57
sg22
(g1
(g2
g3
Ntp58
Rp59
(dp60
g7
(g1
(g2
g3
Ntp61
Rp62
(dp63
g7
(I5
I628
tp64
sg22
(g1
(g2
g3
Ntp65
Rp66
(dp67
g7
(I3
I359
tp68
sg22
(I9
I266
tp69
sbI625
tp70
sbI1253
tp71
sg22
(I1
I977
tp72
sbI2230
tp73
sbI4656
tp74
sbI11746
tp75
a(S'1010'
p76
I4
tp77
a.