(lp0
(dp1
S'11'
p2
cnumpy.core.multiarray
scalar
p3
(cnumpy
dtype
p4
(S'i4'
p5
I0
I1
tp6
Rp7
(I3
S'<'
p8
NNNI-1
I-1
I0
tp9
bS'\x00\x00\x00\x00'
p10
tp11
Rp12
sS'01'
p13
g3
(g7
S'\x04\x00\x00\x00'
p14
tp15
Rp16
sS'101101'
p17
I6
sS'0011'
p18
I5
sS'101100'
p19
I10
sS'1010'
p20
I11
sS'000'
p21
I1
sS'100'
p22
g3
(g7
S'\x02\x00\x00\x00'
p23
tp24
Rp25
sS'00100'
p26
I9
sS'00101'
p27
I3
sS'10111'
p28
g3
(g7
S'\x08\x00\x00\x00'
p29
tp30
Rp31
saS'1010'
p32
a.