(lp0
(dp1
cnumpy.core.multiarray
scalar
p2
(cnumpy
dtype
p3
(S'i4'
p4
I0
I1
tp5
Rp6
(I3
S'<'
p7
NNNI-1
I-1
I0
tp8
bS'\x00\x00\x00\x00'
p9
tp10
Rp11
(S'11'
p12
I2
tp13
sI1
(S'000'
p14
I3
tp15
sg2
(g6
S'\x02\x00\x00\x00'
p16
tp17
Rp18
(S'100'
p19
I3
tp20
sI3
(S'00101'
p21
I5
tp22
sg2
(g6
S'\x04\x00\x00\x00'
p23
tp24
Rp25
(S'01'
p26
I2
tp27
sI5
(S'0011'
p28
I4
tp29
sI6
(S'101101'
p30
I6
tp31
sg2
(g6
S'\x08\x00\x00\x00'
p32
tp33
Rp34
(S'10111'
p35
I5
tp36
sI9
(S'00100'
p37
I5
tp38
sI10
(S'101100'
p39
I6
tp40
sI11
(S'1010'
p41
I4
tp42
saI11
a.