(lp0
(ccopy_reg
_reconstructor
p1
(chuffman
HuffmanNode
p2
c__builtin__
object
p3
Ntp4
Rp5
(dp6
S'right'
p7
(g1
(g2
g3
Ntp8
Rp9
(dp10
g7
(cnumpy.core.multiarray
scalar
p11
(cnumpy
dtype
p12
(S'i4'
p13
I0
I1
tp14
Rp15
(I3
S'<'
p16
NNNI-1
I-1
I0
tp17
bS'\x00\x00\x00\x00'
p18
tp19
Rp20
I847330
tp21
sS'left'
p22
(g1
(g2
g3
Ntp23
Rp24
(dp25
g7
(I2
I373561
tp26
sg22
(g1
(g2
g3
Ntp27
Rp28
(dp29
g7
(I1
I203482
tp30
sg22
(g1
(g2
g3
Ntp31
Rp32
(dp33
g7
(g1
(g2
g3
Ntp34
Rp35
(dp36
g7
(I3
I53752
tp37
sg22
(g1
(g2
g3
Ntp38
Rp39
(dp40
g7
(I11
I23119
tp41
sg22
(I17
I18084
tp42
sbI41203
tp43
sbI94955
tp44
sg22
(g1
(g2
g3
Ntp45
Rp46
(dp47
g7
(I10
I36081
tp48
sg22
(I6
I35386
tp49
sbI71467
tp50
sbI166422
tp51
sbI369904
tp52
sbI743465
tp53
sbI1590795
tp54
sg22
(g1
(g2
g3
Ntp55
Rp56
(dp57
g7
(g1
(g2
g3
Ntp58
Rp59
(dp60
g7
(g1
(g2
g3
Ntp61
Rp62
(dp63
g7
(I8
I151102
tp64
sg22
(g1
(g2
g3
Ntp65
Rp66
(dp67
g7
(I9
I70948
tp68
sg22
(g1
(g2
g3
Ntp69
Rp70
(dp71
g7
(g11
(g15
S'\x10\x00\x00\x00'
p72
tp73
Rp74
I34416
tp75
sg22
(g1
(g2
g3
Ntp76
Rp77
(dp78
g7
(g11
(g15
S' \x00\x00\x00'
p79
tp80
Rp81
I15747
tp82
sg22
(I12
I15376
tp83
sbI31123
tp84
sbI65539
tp85
sbI136487
tp86
sbI287589
tp87
sg22
(g1
(g2
g3
Ntp88
Rp89
(dp90
g7
(I7
I127621
tp91
sg22
(I5
I115367
tp92
sbI242988
tp93
sbI530577
tp94
sg22
(I4
I376042
tp95
sbI906619
tp96
sbI2497414
tp97
a(S'0101'
p98
I4
tp99
a.