(lp0
(dp1
cnumpy.core.multiarray
scalar
p2
(cnumpy
dtype
p3
(S'i4'
p4
I0
I1
tp5
Rp6
(I3
S'<'
p7
NNNI-1
I-1
I0
tp8
bS' \x00\x00\x00'
p9
tp10
Rp11
(S'0110001'
p12
I7
tp13
sI1
(S'1001'
p14
I4
tp15
sI2
(S'101'
p16
I3
tp17
sI3
(S'100011'
p18
I6
tp19
sI4
(S'00'
p20
I2
tp21
sI5
(S'0100'
p22
I4
tp23
sI6
(S'100000'
p24
I6
tp25
sI7
(S'0101'
p26
I4
tp27
sI8
(S'0111'
p28
I4
tp29
sI9
(S'01101'
p30
I5
tp31
sI10
(S'100001'
p32
I6
tp33
sI11
(S'1000101'
p34
I7
tp35
sI12
(S'0110000'
p36
I7
tp37
sg2
(g6
S'\x10\x00\x00\x00'
p38
tp39
Rp40
(S'011001'
p41
I6
tp42
sI17
(S'1000100'
p43
I7
tp44
sg2
(g6
S'\x00\x00\x00\x00'
p45
tp46
Rp47
(S'11'
p48
I2
tp49
saI7
a.