(lp0
(ccopy_reg
_reconstructor
p1
(chuffman
HuffmanNode
p2
c__builtin__
object
p3
Ntp4
Rp5
(dp6
S'right'
p7
(g1
(g2
g3
Ntp8
Rp9
(dp10
g7
(g1
(g2
g3
Ntp11
Rp12
(dp13
g7
(g1
(g2
g3
Ntp14
Rp15
(dp16
g7
(g1
(g2
g3
Ntp17
Rp18
(dp19
g7
(g1
(g2
g3
Ntp20
Rp21
(dp22
g7
(g1
(g2
g3
Ntp23
Rp24
(dp25
g7
(I9
I26413
tp26
sS'left'
p27
(g1
(g2
g3
Ntp28
Rp29
(dp30
g7
(I6
I13529
tp31
sg27
(I18
I12210
tp32
sbI25739
tp33
sbI52152
tp34
sg27
(g1
(g2
g3
Ntp35
Rp36
(dp37
g7
(I3
I25302
tp38
sg27
(cnumpy.core.multiarray
scalar
p39
(cnumpy
dtype
p40
(S'i4'
p41
I0
I1
tp42
Rp43
(I3
S'<'
p44
NNNI-1
I-1
I0
tp45
bS'\x11\x00\x00\x00'
p46
tp47
Rp48
I23607
tp49
sbI48909
tp50
sbI101061
tp51
sg27
(I1
I74177
tp52
sbI175238
tp53
sg27
(g39
(g43
S'\x08\x00\x00\x00'
p54
tp55
Rp56
I162461
tp57
sbI337699
tp58
sg27
(g39
(g43
S'\x02\x00\x00\x00'
p59
tp60
Rp61
I301303
tp62
sbI639002
tp63
sg27
(g1
(g2
g3
Ntp64
Rp65
(dp66
g7
(g39
(g43
S'\x04\x00\x00\x00'
p67
tp68
Rp69
I292467
tp70
sg27
(g1
(g2
g3
Ntp71
Rp72
(dp73
g7
(g1
(g2
g3
Ntp74
Rp75
(dp76
g7
(g39
(g43
S'\x10\x00\x00\x00'
p77
tp78
Rp79
I73868
tp80
sg27
(g1
(g2
g3
Ntp81
Rp82
(dp83
g7
(g1
(g2
g3
Ntp84
Rp85
(dp86
g7
(I5
I23578
tp87
sg27
(g1
(g2
g3
Ntp88
Rp89
(dp90
g7
(I64
I10981
tp91
sg27
(I10
I10314
tp92
sbI21295
tp93
sbI44873
tp94
sg27
(I32
I26878
tp95
sbI71751
tp96
sbI145619
tp97
sg27
(I7
I141373
tp98
sbI286992
tp99
sbI579459
tp100
sbI1218461
tp101
sg27
(g39
(g43
S'\x00\x00\x00\x00'
p102
tp103
Rp104
I930072
tp105
sbI2148533
tp106
a(S'1000'
p107
I4
tp108
a.