(lp0
(dp1
cnumpy.core.multiarray
scalar
p2
(cnumpy
dtype
p3
(S'i4'
p4
I0
I1
tp5
Rp6
(I3
S'<'
p7
NNNI-1
I-1
I0
tp8
bS'\x00\x00\x00\x00'
p9
tp10
Rp11
(S'0'
p12
I1
tp13
sI32
(S'100100'
p14
I6
tp15
sg2
(g6
S'\x02\x00\x00\x00'
p16
tp17
Rp18
(S'110'
p19
I3
tp20
sI3
(S'1111101'
p21
I7
tp22
sg2
(g6
S'\x04\x00\x00\x00'
p23
tp24
Rp25
(S'101'
p26
I3
tp27
sI5
(S'1001011'
p28
I7
tp29
sI6
(S'11111101'
p30
I8
tp31
sI7
(S'1000'
p32
I4
tp33
sI64
(S'10010101'
p34
I8
tp35
sI9
(S'1111111'
p36
I7
tp37
sI10
(S'10010100'
p38
I8
tp39
sg2
(g6
S'\x10\x00\x00\x00'
p40
tp41
Rp42
(S'10011'
p43
I5
tp44
sg2
(g6
S'\x08\x00\x00\x00'
p45
tp46
Rp47
(S'1110'
p48
I4
tp49
sI18
(S'11111100'
p50
I8
tp51
sg2
(g6
S'\x11\x00\x00\x00'
p52
tp53
Rp54
(S'1111100'
p55
I7
tp56
sI1
(S'11110'
p57
I5
tp58
saI7
a.